target datalayout = "e-m:e-p270:32:32-p271:32:32-p272:64:64-i64:64-i128:128-f80:128-n8:16:32:64-S128"
target triple = "x86_64-pc-linux-gnu"

%struct.expert_field = type { i32, i32 }

@ei_c2_c3_c4_format = internal global %struct.expert_field zeroinitializer, align 4
@hf_oap_1_cmdcontrol = internal global i32 0, align 4
@hf_oap_1_cmdcontrol_cache_flag = internal global i32 0, align 4
@hf_oap_1_cmdcontrol_cache = internal global i32 0, align 4
@hf_oap_1_cmdcontrol_verbosity_flag = internal global i32 0, align 4
@hf_oap_1_cmdcontrol_noexecute_flag = internal global i32 0, align 4
@hf_oap_1_cmdcontrol_ack_flag = internal global i32 0, align 4
@hf_oap_1_cmdcontrol_ackcnt = internal global i32 0, align 4
@hf_oap_1_cmdcontrol_ack = internal global i32 0, align 4
@hf_oap_1_cmdcontrol_delay_flag = internal global i32 0, align 4
@hf_oap_1_cmdcontrol_heuristic_flag = internal global i32 0, align 4
@hf_oap_1_cmdcontrol_heuristic = internal global i32 0, align 4
@ett_oap_1_cmdcontrol = internal global i32 0, align 4
@ett_oap_1_cmdcontrol_flags = internal global i32 0, align 4
@ett_oap_1_cmdcontrol_ack = internal global i32 0, align 4
@.str.737 = private unnamed_addr constant [66 x i8] c"DOF Violation: Type.1.1: Compressed 16-bit Compression Mandatory.\00", align 1
@.str.771 = private unnamed_addr constant [21 x i8] c"Heuristic Value: %hu\00", align 1
@.str.772 = private unnamed_addr constant [17 x i8] c"Cache Delay: %hu\00", align 1

; Function Attrs: null_pointer_is_valid sspstrong uwtable
define internal i32 @dof_dissect_pdu(ptr noundef %0, ptr noundef %1, ptr noundef %2, ptr noundef %3, ptr noundef %4) #0 {
  %6 = alloca ptr, align 8
  %7 = alloca ptr, align 8
  %8 = alloca ptr, align 8
  %9 = alloca ptr, align 8
  %10 = alloca ptr, align 8
  %11 = alloca i32, align 4
  store ptr %0, ptr %6, align 8
  store ptr %1, ptr %7, align 8
  store ptr %2, ptr %8, align 8
  store ptr %3, ptr %9, align 8
  store ptr %4, ptr %10, align 8
  call void @llvm.lifetime.start.p0(i64 4, ptr %11) #19
  %12 = load ptr, ptr %6, align 8
  %13 = load ptr, ptr %7, align 8
  %14 = load ptr, ptr %8, align 8
  %15 = load ptr, ptr %9, align 8
  %16 = load ptr, ptr %10, align 8
  %17 = call i32 %12(ptr noundef %13, ptr noundef %14, ptr noundef %15, ptr noundef %16)
  store i32 %17, ptr %11, align 4
  %18 = load ptr, ptr %9, align 8
  %19 = call ptr @proto_tree_get_parent(ptr noundef %18)
  %20 = load i32, ptr %11, align 4
  call void @proto_item_set_len(ptr noundef %19, i32 noundef %20)
  %21 = load i32, ptr %11, align 4
  call void @llvm.lifetime.end.p0(i64 4, ptr %11) #19
  ret i32 %21
}

; Function Attrs: null_pointer_is_valid sspstrong uwtable
define internal i32 @dof_dissect_pdu_as_field(ptr noundef %0, ptr noundef %1, ptr noundef %2, ptr noundef %3, i32 noundef %4, i32 noundef %5, i32 noundef %6, ptr noundef %7) #0 {
  %9 = alloca ptr, align 8
  %10 = alloca ptr, align 8
  %11 = alloca ptr, align 8
  %12 = alloca ptr, align 8
  %13 = alloca i32, align 4
  %14 = alloca i32, align 4
  %15 = alloca i32, align 4
  %16 = alloca ptr, align 8
  %17 = alloca i32, align 4
  %18 = alloca ptr, align 8
  %19 = alloca ptr, align 8
  %20 = alloca ptr, align 8
  store ptr %0, ptr %9, align 8
  store ptr %1, ptr %10, align 8
  store ptr %2, ptr %11, align 8
  store ptr %3, ptr %12, align 8
  store i32 %4, ptr %13, align 4
  store i32 %5, ptr %14, align 4
  store i32 %6, ptr %15, align 4
  store ptr %7, ptr %16, align 8
  call void @llvm.lifetime.start.p0(i64 4, ptr %17) #19
  call void @llvm.lifetime.start.p0(i64 8, ptr %18) #19
  %21 = load ptr, ptr %10, align 8
  %22 = load i32, ptr %13, align 4
  %23 = call ptr @tvb_new_subset_remaining(ptr noundef %21, i32 noundef %22)
  store ptr %23, ptr %18, align 8
  call void @llvm.lifetime.start.p0(i64 8, ptr %19) #19
  call void @llvm.lifetime.start.p0(i64 8, ptr %20) #19
  %24 = load ptr, ptr %12, align 8
  %25 = load i32, ptr %14, align 4
  %26 = load ptr, ptr %10, align 8
  %27 = load i32, ptr %13, align 4
  %28 = call ptr @proto_tree_add_item(ptr noundef %24, i32 noundef %25, ptr noundef %26, i32 noundef %27, i32 noundef -1, i32 noundef 0)
  store ptr %28, ptr %20, align 8
  %29 = load ptr, ptr %20, align 8
  %30 = load i32, ptr %15, align 4
  %31 = call ptr @proto_item_add_subtree(ptr noundef %29, i32 noundef %30)
  store ptr %31, ptr %19, align 8
  %32 = load ptr, ptr %9, align 8
  %33 = load ptr, ptr %18, align 8
  %34 = load ptr, ptr %11, align 8
  %35 = load ptr, ptr %19, align 8
  %36 = load ptr, ptr %16, align 8
  %37 = call i32 @dof_dissect_pdu(ptr noundef %32, ptr noundef %33, ptr noundef %34, ptr noundef %35, ptr noundef %36)
  store i32 %37, ptr %17, align 4
  %38 = load i32, ptr %13, align 4
  %39 = load i32, ptr %17, align 4
  %40 = add i32 %38, %39
  call void @llvm.lifetime.end.p0(i64 8, ptr %20) #19
  call void @llvm.lifetime.end.p0(i64 8, ptr %19) #19
  call void @llvm.lifetime.end.p0(i64 8, ptr %18) #19
  call void @llvm.lifetime.end.p0(i64 4, ptr %17) #19
  ret i32 %40
}

; Function Attrs: null_pointer_is_valid sspstrong uwtable
define internal void @validate_c2(ptr noundef %0, ptr noundef %1, i16 noundef zeroext %2, i32 noundef %3) #0 {
  %5 = alloca ptr, align 8
  %6 = alloca ptr, align 8
  %7 = alloca i16, align 2
  %8 = alloca i32, align 4
  store ptr %0, ptr %5, align 8
  store ptr %1, ptr %6, align 8
  store i16 %2, ptr %7, align 2
  store i32 %3, ptr %8, align 4
  %9 = load i32, ptr %8, align 4
  %10 = icmp sgt i32 %9, 1
  br i1 %10, label %11, label %19

11:                                               ; preds = %4
  %12 = load i16, ptr %7, align 2
  %13 = zext i16 %12 to i32
  %14 = icmp slt i32 %13, 128
  br i1 %14, label %15, label %19

15:                                               ; preds = %11
  %16 = load ptr, ptr %5, align 8
  %17 = load ptr, ptr %6, align 8
  %18 = call ptr (ptr, ptr, ptr, ptr, ...) @expert_add_info_format(ptr noundef %16, ptr noundef %17, ptr noundef @ei_c2_c3_c4_format, ptr noundef @.str.737)
  br label %19

19:                                               ; preds = %15, %11, %4
  ret void
}

; Function Attrs: null_pointer_is_valid sspstrong uwtable
define internal i32 @read_c2(ptr noundef %0, i32 noundef %1, ptr noundef %2, ptr noundef %3) #0 {
  %5 = alloca ptr, align 8
  %6 = alloca i32, align 4
  %7 = alloca ptr, align 8
  %8 = alloca ptr, align 8
  %9 = alloca i16, align 2
  %10 = alloca i8, align 1
  store ptr %0, ptr %5, align 8
  store i32 %1, ptr %6, align 4
  store ptr %2, ptr %7, align 8
  store ptr %3, ptr %8, align 8
  call void @llvm.lifetime.start.p0(i64 2, ptr %9) #19
  store i16 0, ptr %9, align 2
  call void @llvm.lifetime.start.p0(i64 1, ptr %10) #19
  %11 = load ptr, ptr %5, align 8
  %12 = load i32, ptr %6, align 4
  %13 = add i32 %12, 1
  store i32 %13, ptr %6, align 4
  %14 = call zeroext i8 @tvb_get_uint8(ptr noundef %11, i32 noundef %12)
  store i8 %14, ptr %10, align 1
  %15 = load i8, ptr %10, align 1
  %16 = zext i8 %15 to i32
  %17 = and i32 %16, 128
  %18 = icmp ne i32 %17, 0
  br i1 %18, label %19, label %39

19:                                               ; preds = %4
  %20 = load i8, ptr %10, align 1
  %21 = zext i8 %20 to i32
  %22 = and i32 %21, 127
  %23 = trunc i32 %22 to i8
  store i8 %23, ptr %10, align 1
  %24 = load i8, ptr %10, align 1
  %25 = zext i8 %24 to i32
  %26 = shl i32 %25, 8
  %27 = load ptr, ptr %5, align 8
  %28 = load i32, ptr %6, align 4
  %29 = add i32 %28, 1
  store i32 %29, ptr %6, align 4
  %30 = call zeroext i8 @tvb_get_uint8(ptr noundef %27, i32 noundef %28)
  %31 = zext i8 %30 to i32
  %32 = or i32 %26, %31
  %33 = trunc i32 %32 to i16
  store i16 %33, ptr %9, align 2
  %34 = load ptr, ptr %8, align 8
  %35 = icmp ne ptr %34, null
  br i1 %35, label %36, label %38

36:                                               ; preds = %19
  %37 = load ptr, ptr %8, align 8
  store i32 2, ptr %37, align 4
  br label %38

38:                                               ; preds = %36, %19
  br label %47

39:                                               ; preds = %4
  %40 = load i8, ptr %10, align 1
  %41 = zext i8 %40 to i16
  store i16 %41, ptr %9, align 2
  %42 = load ptr, ptr %8, align 8
  %43 = icmp ne ptr %42, null
  br i1 %43, label %44, label %46

44:                                               ; preds = %39
  %45 = load ptr, ptr %8, align 8
  store i32 1, ptr %45, align 4
  br label %46

46:                                               ; preds = %44, %39
  br label %47

47:                                               ; preds = %46, %38
  %48 = load ptr, ptr %7, align 8
  %49 = icmp ne ptr %48, null
  br i1 %49, label %50, label %53

50:                                               ; preds = %47
  %51 = load i16, ptr %9, align 2
  %52 = load ptr, ptr %7, align 8
  store i16 %51, ptr %52, align 2
  br label %53

53:                                               ; preds = %50, %47
  %54 = load i32, ptr %6, align 4
  call void @llvm.lifetime.end.p0(i64 1, ptr %10) #19
  call void @llvm.lifetime.end.p0(i64 2, ptr %9) #19
  ret i32 %54
}

; Function Attrs: null_pointer_is_valid sspstrong uwtable
define internal i32 @oap_1_tree_add_cmdcontrol(ptr noundef %0, ptr noundef %1, ptr noundef %2, i32 noundef %3) #0 {
  %5 = alloca ptr, align 8
  %6 = alloca ptr, align 8
  %7 = alloca ptr, align 8
  %8 = alloca i32, align 4
  %9 = alloca ptr, align 8
  %10 = alloca ptr, align 8
  %11 = alloca i8, align 1
  %12 = alloca i32, align 4
  %13 = alloca i16, align 2
  %14 = alloca ptr, align 8
  %15 = alloca i8, align 1
  %16 = alloca i8, align 1
  %17 = alloca i32, align 4
  %18 = alloca i16, align 2
  %19 = alloca ptr, align 8
  store ptr %0, ptr %5, align 8
  store ptr %1, ptr %6, align 8
  store ptr %2, ptr %7, align 8
  store i32 %3, ptr %8, align 4
  call void @llvm.lifetime.start.p0(i64 8, ptr %9) #19
  call void @llvm.lifetime.start.p0(i64 8, ptr %10) #19
  call void @llvm.lifetime.start.p0(i64 1, ptr %11) #19
  %20 = load ptr, ptr %7, align 8
  %21 = load i32, ptr %8, align 4
  %22 = call zeroext i8 @tvb_get_uint8(ptr noundef %20, i32 noundef %21)
  store i8 %22, ptr %11, align 1
  %23 = load ptr, ptr %6, align 8
  %24 = load ptr, ptr %7, align 8
  %25 = load i32, ptr %8, align 4
  %26 = load i32, ptr @hf_oap_1_cmdcontrol, align 4
  %27 = load i32, ptr @ett_oap_1_cmdcontrol_flags, align 4
  %28 = call ptr @proto_tree_add_bitmask(ptr noundef %23, ptr noundef %24, i32 noundef %25, i32 noundef %26, i32 noundef %27, ptr noundef @bitmask_oap_1_cmdcontrol_flags, i32 noundef 0)
  store ptr %28, ptr %9, align 8
  %29 = load ptr, ptr %9, align 8
  %30 = load i32, ptr @ett_oap_1_cmdcontrol, align 4
  %31 = call ptr @proto_item_add_subtree(ptr noundef %29, i32 noundef %30)
  store ptr %31, ptr %10, align 8
  %32 = load ptr, ptr %10, align 8
  %33 = load i32, ptr @hf_oap_1_cmdcontrol_cache_flag, align 4
  %34 = load ptr, ptr %7, align 8
  %35 = load i32, ptr %8, align 4
  %36 = call ptr @proto_tree_add_item(ptr noundef %32, i32 noundef %33, ptr noundef %34, i32 noundef %35, i32 noundef 1, i32 noundef 0)
  %37 = load ptr, ptr %10, align 8
  %38 = load i32, ptr @hf_oap_1_cmdcontrol_verbosity_flag, align 4
  %39 = load ptr, ptr %7, align 8
  %40 = load i32, ptr %8, align 4
  %41 = call ptr @proto_tree_add_item(ptr noundef %37, i32 noundef %38, ptr noundef %39, i32 noundef %40, i32 noundef 1, i32 noundef 0)
  %42 = load ptr, ptr %10, align 8
  %43 = load i32, ptr @hf_oap_1_cmdcontrol_noexecute_flag, align 4
  %44 = load ptr, ptr %7, align 8
  %45 = load i32, ptr %8, align 4
  %46 = call ptr @proto_tree_add_item(ptr noundef %42, i32 noundef %43, ptr noundef %44, i32 noundef %45, i32 noundef 1, i32 noundef 0)
  %47 = load ptr, ptr %10, align 8
  %48 = load i32, ptr @hf_oap_1_cmdcontrol_ack_flag, align 4
  %49 = load ptr, ptr %7, align 8
  %50 = load i32, ptr %8, align 4
  %51 = call ptr @proto_tree_add_item(ptr noundef %47, i32 noundef %48, ptr noundef %49, i32 noundef %50, i32 noundef 1, i32 noundef 0)
  %52 = load ptr, ptr %10, align 8
  %53 = load i32, ptr @hf_oap_1_cmdcontrol_delay_flag, align 4
  %54 = load ptr, ptr %7, align 8
  %55 = load i32, ptr %8, align 4
  %56 = call ptr @proto_tree_add_item(ptr noundef %52, i32 noundef %53, ptr noundef %54, i32 noundef %55, i32 noundef 1, i32 noundef 0)
  %57 = load ptr, ptr %10, align 8
  %58 = load i32, ptr @hf_oap_1_cmdcontrol_heuristic_flag, align 4
  %59 = load ptr, ptr %7, align 8
  %60 = load i32, ptr %8, align 4
  %61 = call ptr @proto_tree_add_item(ptr noundef %57, i32 noundef %58, ptr noundef %59, i32 noundef %60, i32 noundef 1, i32 noundef 0)
  %62 = load i32, ptr %8, align 4
  %63 = add i32 %62, 1
  store i32 %63, ptr %8, align 4
  %64 = load i8, ptr %11, align 1
  %65 = zext i8 %64 to i32
  %66 = and i32 %65, 1
  %67 = icmp ne i32 %66, 0
  br i1 %67, label %68, label %89

68:                                               ; preds = %4
  call void @llvm.lifetime.start.p0(i64 4, ptr %12) #19
  call void @llvm.lifetime.start.p0(i64 2, ptr %13) #19
  call void @llvm.lifetime.start.p0(i64 8, ptr %14) #19
  %69 = load ptr, ptr %7, align 8
  %70 = load i32, ptr %8, align 4
  %71 = call i32 @read_c2(ptr noundef %69, i32 noundef %70, ptr noundef %13, ptr noundef %12)
  %72 = load ptr, ptr %10, align 8
  %73 = load i32, ptr @hf_oap_1_cmdcontrol_heuristic, align 4
  %74 = load ptr, ptr %7, align 8
  %75 = load i32, ptr %8, align 4
  %76 = load i32, ptr %12, align 4
  %77 = load i16, ptr %13, align 2
  %78 = zext i16 %77 to i32
  %79 = load i16, ptr %13, align 2
  %80 = zext i16 %79 to i32
  %81 = call ptr (ptr, i32, ptr, i32, i32, i32, ptr, ...) @proto_tree_add_uint_format(ptr noundef %72, i32 noundef %73, ptr noundef %74, i32 noundef %75, i32 noundef %76, i32 noundef %78, ptr noundef @.str.771, i32 noundef %80)
  store ptr %81, ptr %14, align 8
  %82 = load ptr, ptr %5, align 8
  %83 = load ptr, ptr %14, align 8
  %84 = load i16, ptr %13, align 2
  %85 = load i32, ptr %12, align 4
  call void @validate_c2(ptr noundef %82, ptr noundef %83, i16 noundef zeroext %84, i32 noundef %85)
  %86 = load i32, ptr %12, align 4
  %87 = load i32, ptr %8, align 4
  %88 = add i32 %87, %86
  store i32 %88, ptr %8, align 4
  call void @llvm.lifetime.end.p0(i64 8, ptr %14) #19
  call void @llvm.lifetime.end.p0(i64 2, ptr %13) #19
  call void @llvm.lifetime.end.p0(i64 4, ptr %12) #19
  br label %89

89:                                               ; preds = %68, %4
  %90 = load i8, ptr %11, align 1
  %91 = zext i8 %90 to i32
  %92 = and i32 %91, 4
  %93 = icmp ne i32 %92, 0
  br i1 %93, label %94, label %123

94:                                               ; preds = %89
  call void @llvm.lifetime.start.p0(i64 1, ptr %15) #19
  call void @llvm.lifetime.start.p0(i64 1, ptr %16) #19
  %95 = load ptr, ptr %7, align 8
  %96 = load i32, ptr %8, align 4
  %97 = call zeroext i8 @tvb_get_uint8(ptr noundef %95, i32 noundef %96)
  store i8 %97, ptr %15, align 1
  %98 = load ptr, ptr %10, align 8
  %99 = load i32, ptr @hf_oap_1_cmdcontrol_ackcnt, align 4
  %100 = load ptr, ptr %7, align 8
  %101 = load i32, ptr %8, align 4
  %102 = call ptr @proto_tree_add_item(ptr noundef %98, i32 noundef %99, ptr noundef %100, i32 noundef %101, i32 noundef 1, i32 noundef 0)
  %103 = load i32, ptr %8, align 4
  %104 = add i32 %103, 1
  store i32 %104, ptr %8, align 4
  store i8 0, ptr %16, align 1
  br label %105

105:                                              ; preds = %119, %94
  %106 = load i8, ptr %16, align 1
  %107 = zext i8 %106 to i32
  %108 = load i8, ptr %15, align 1
  %109 = zext i8 %108 to i32
  %110 = icmp slt i32 %107, %109
  br i1 %110, label %111, label %122

111:                                              ; preds = %105
  %112 = load ptr, ptr %7, align 8
  %113 = load ptr, ptr %5, align 8
  %114 = load ptr, ptr %10, align 8
  %115 = load i32, ptr %8, align 4
  %116 = load i32, ptr @hf_oap_1_cmdcontrol_ack, align 4
  %117 = load i32, ptr @ett_oap_1_cmdcontrol_ack, align 4
  %118 = call i32 @dof_dissect_pdu_as_field(ptr noundef @dissect_2009_11_type_4, ptr noundef %112, ptr noundef %113, ptr noundef %114, i32 noundef %115, i32 noundef %116, i32 noundef %117, ptr noundef null)
  store i32 %118, ptr %8, align 4
  br label %119

119:                                              ; preds = %111
  %120 = load i8, ptr %16, align 1
  %121 = add i8 %120, 1
  store i8 %121, ptr %16, align 1
  br label %105, !llvm.loop !65

122:                                              ; preds = %105
  call void @llvm.lifetime.end.p0(i64 1, ptr %16) #19
  call void @llvm.lifetime.end.p0(i64 1, ptr %15) #19
  br label %123

123:                                              ; preds = %122, %89
  %124 = load i8, ptr %11, align 1
  %125 = zext i8 %124 to i32
  %126 = and i32 %125, 64
  %127 = icmp ne i32 %126, 0
  br i1 %127, label %128, label %149

128:                                              ; preds = %123
  call void @llvm.lifetime.start.p0(i64 4, ptr %17) #19
  call void @llvm.lifetime.start.p0(i64 2, ptr %18) #19
  call void @llvm.lifetime.start.p0(i64 8, ptr %19) #19
  %129 = load ptr, ptr %7, align 8
  %130 = load i32, ptr %8, align 4
  %131 = call i32 @read_c2(ptr noundef %129, i32 noundef %130, ptr noundef %18, ptr noundef %17)
  %132 = load ptr, ptr %10, align 8
  %133 = load i32, ptr @hf_oap_1_cmdcontrol_cache, align 4
  %134 = load ptr, ptr %7, align 8
  %135 = load i32, ptr %8, align 4
  %136 = load i32, ptr %17, align 4
  %137 = load i16, ptr %18, align 2
  %138 = zext i16 %137 to i32
  %139 = load i16, ptr %18, align 2
  %140 = zext i16 %139 to i32
  %141 = call ptr (ptr, i32, ptr, i32, i32, i32, ptr, ...) @proto_tree_add_uint_format(ptr noundef %132, i32 noundef %133, ptr noundef %134, i32 noundef %135, i32 noundef %136, i32 noundef %138, ptr noundef @.str.772, i32 noundef %140)
  store ptr %141, ptr %19, align 8
  %142 = load ptr, ptr %5, align 8
  %143 = load ptr, ptr %19, align 8
  %144 = load i16, ptr %18, align 2
  %145 = load i32, ptr %17, align 4
  call void @validate_c2(ptr noundef %142, ptr noundef %143, i16 noundef zeroext %144, i32 noundef %145)
  %146 = load i32, ptr %17, align 4
  %147 = load i32, ptr %8, align 4
  %148 = add i32 %147, %146
  store i32 %148, ptr %8, align 4
  call void @llvm.lifetime.end.p0(i64 8, ptr %19) #19
  call void @llvm.lifetime.end.p0(i64 2, ptr %18) #19
  call void @llvm.lifetime.end.p0(i64 4, ptr %17) #19
  br label %149

149:                                              ; preds = %128, %123
  %150 = load i32, ptr %8, align 4
  call void @llvm.lifetime.end.p0(i64 1, ptr %11) #19
  call void @llvm.lifetime.end.p0(i64 8, ptr %10) #19
  call void @llvm.lifetime.end.p0(i64 8, ptr %9) #19
  ret i32 %150
}