; Function Attrs: null_pointer_is_valid sspstrong uwtable
define internal fastcc i32 @oap_1_tree_add_cmdcontrol(ptr noundef %0, ptr noundef %1, ptr noundef %2, i32 noundef %3) unnamed_addr #0 {
  %5 = tail call zeroext i8 @tvb_get_uint8(ptr noundef %2, i32 noundef %3)
  %6 = load i32, ptr @hf_oap_1_cmdcontrol, align 4
  %7 = load i32, ptr @ett_oap_1_cmdcontrol_flags, align 4
  %8 = tail call ptr @proto_tree_add_bitmask(ptr noundef %1, ptr noundef %2, i32 noundef %3, i32 noundef %6, i32 noundef %7, ptr noundef nonnull @bitmask_oap_1_cmdcontrol_flags, i32 noundef 0)
  %9 = load i32, ptr @ett_oap_1_cmdcontrol, align 4
  %10 = tail call ptr @proto_item_add_subtree(ptr noundef %8, i32 noundef %9)
  %11 = load i32, ptr @hf_oap_1_cmdcontrol_cache_flag, align 4
  %12 = tail call ptr @proto_tree_add_item(ptr noundef %10, i32 noundef %11, ptr noundef %2, i32 noundef %3, i32 noundef 1, i32 noundef 0)
  %13 = load i32, ptr @hf_oap_1_cmdcontrol_verbosity_flag, align 4
  %14 = tail call ptr @proto_tree_add_item(ptr noundef %10, i32 noundef %13, ptr noundef %2, i32 noundef %3, i32 noundef 1, i32 noundef 0)
  %15 = load i32, ptr @hf_oap_1_cmdcontrol_noexecute_flag, align 4
  %16 = tail call ptr @proto_tree_add_item(ptr noundef %10, i32 noundef %15, ptr noundef %2, i32 noundef %3, i32 noundef 1, i32 noundef 0)
  %17 = load i32, ptr @hf_oap_1_cmdcontrol_ack_flag, align 4
  %18 = tail call ptr @proto_tree_add_item(ptr noundef %10, i32 noundef %17, ptr noundef %2, i32 noundef %3, i32 noundef 1, i32 noundef 0)
  %19 = load i32, ptr @hf_oap_1_cmdcontrol_delay_flag, align 4
  %20 = tail call ptr @proto_tree_add_item(ptr noundef %10, i32 noundef %19, ptr noundef %2, i32 noundef %3, i32 noundef 1, i32 noundef 0)
  %21 = load i32, ptr @hf_oap_1_cmdcontrol_heuristic_flag, align 4
  %22 = tail call ptr @proto_tree_add_item(ptr noundef %10, i32 noundef %21, ptr noundef %2, i32 noundef %3, i32 noundef 1, i32 noundef 0)
  %23 = add i32 %3, 1
  %24 = zext i8 %5 to i32
  %25 = and i32 %24, 1
  %.not = icmp eq i32 %25, 0
  br i1 %.not, label %45, label %26

26:                                               ; preds = %4
  %27 = tail call zeroext i8 @tvb_get_uint8(ptr noundef %2, i32 noundef %23)
  %.not.i = icmp slt i8 %27, 0
  br i1 %.not.i, label %28, label %36

28:                                               ; preds = %26
  %29 = add i32 %3, 2
  %30 = and i8 %27, 127
  %31 = zext nneg i8 %30 to i16
  %32 = shl nuw nsw i16 %31, 8
  %33 = tail call zeroext i8 @tvb_get_uint8(ptr noundef %2, i32 noundef %29)
  %34 = zext i8 %33 to i16
  %35 = or disjoint i16 %32, %34
  br label %read_c2.exit

36:                                               ; preds = %26
  %37 = zext nneg i8 %27 to i16
  br label %read_c2.exit

read_c2.exit:                                     ; preds = %28, %36
  %.sink.i = phi i32 [ 2, %28 ], [ 1, %36 ]
  %.0.ph.i = phi i16 [ %35, %28 ], [ %37, %36 ]
  %38 = load i32, ptr @hf_oap_1_cmdcontrol_heuristic, align 4
  %39 = zext nneg i16 %.0.ph.i to i32
  %40 = tail call ptr (ptr, i32, ptr, i32, i32, i32, ptr, ...) @proto_tree_add_uint_format(ptr noundef %10, i32 noundef %38, ptr noundef %2, i32 noundef %23, i32 noundef %.sink.i, i32 noundef %39, ptr noundef nonnull @.str.771, i32 noundef %39)
  %41 = icmp samesign ult i16 %.0.ph.i, 128
  %or.cond.i = and i1 %.not.i, %41
  br i1 %or.cond.i, label %42, label %validate_c2.exit

42:                                               ; preds = %read_c2.exit
  %43 = tail call ptr (ptr, ptr, ptr, ptr, ...) @expert_add_info_format(ptr noundef %0, ptr noundef %40, ptr noundef nonnull @ei_c2_c3_c4_format, ptr noundef nonnull @.str.737)
  br label %validate_c2.exit

validate_c2.exit:                                 ; preds = %read_c2.exit, %42
  %44 = add i32 %.sink.i, %23
  br label %45

45:                                               ; preds = %validate_c2.exit, %4
  %.0 = phi i32 [ %44, %validate_c2.exit ], [ %23, %4 ]
  %46 = and i32 %24, 4
  %.not58 = icmp eq i32 %46, 0
  br i1 %.not58, label %.loopexit, label %47

47:                                               ; preds = %45
  %48 = tail call zeroext i8 @tvb_get_uint8(ptr noundef %2, i32 noundef %.0)
  %49 = load i32, ptr @hf_oap_1_cmdcontrol_ackcnt, align 4
  %50 = tail call ptr @proto_tree_add_item(ptr noundef %10, i32 noundef %49, ptr noundef %2, i32 noundef %.0, i32 noundef 1, i32 noundef 0)
  %51 = add i32 %.0, 1
  %.not78 = icmp eq i8 %48, 0
  br i1 %.not78, label %.loopexit, label %.lr.ph

.lr.ph:                                           ; preds = %47, %.lr.ph
  %.277 = phi i32 [ %59, %.lr.ph ], [ %51, %47 ]
  %.05776 = phi i8 [ %60, %.lr.ph ], [ 0, %47 ]
  %52 = load i32, ptr @hf_oap_1_cmdcontrol_ack, align 4
  %53 = load i32, ptr @ett_oap_1_cmdcontrol_ack, align 4
  %54 = tail call ptr @tvb_new_subset_remaining(ptr noundef %2, i32 noundef %.277)
  %55 = tail call ptr @proto_tree_add_item(ptr noundef %10, i32 noundef %52, ptr noundef %2, i32 noundef %.277, i32 noundef -1, i32 noundef 0)
  %56 = tail call ptr @proto_item_add_subtree(ptr noundef %55, i32 noundef %53)
  %57 = tail call i32 @dissect_2009_11_type_4(ptr noundef %54, ptr noundef %0, ptr noundef %56, ptr poison)
  %58 = tail call ptr @proto_tree_get_parent(ptr noundef %56)
  tail call void @proto_item_set_len(ptr noundef %58, i32 noundef %57)
  %59 = add i32 %57, %.277
  %60 = add nuw i8 %.05776, 1
  %exitcond.not = icmp eq i8 %60, %48
  br i1 %exitcond.not, label %.loopexit, label %.lr.ph, !llvm.loop !86

.loopexit:                                        ; preds = %.lr.ph, %47, %45
  %.1 = phi i32 [ %.0, %45 ], [ %51, %47 ], [ %59, %.lr.ph ]
  %61 = and i32 %24, 64
  %.not59 = icmp eq i32 %61, 0
  br i1 %.not59, label %81, label %62

62:                                               ; preds = %.loopexit
  %63 = tail call zeroext i8 @tvb_get_uint8(ptr noundef %2, i32 noundef %.1)
  %.not.i60 = icmp slt i8 %63, 0
  br i1 %.not.i60, label %64, label %72

64:                                               ; preds = %62
  %65 = add i32 %.1, 1
  %66 = and i8 %63, 127
  %67 = zext nneg i8 %66 to i16
  %68 = shl nuw nsw i16 %67, 8
  %69 = tail call zeroext i8 @tvb_get_uint8(ptr noundef %2, i32 noundef %65)
  %70 = zext i8 %69 to i16
  %71 = or disjoint i16 %68, %70
  br label %read_c2.exit64

72:                                               ; preds = %62
  %73 = zext nneg i8 %63 to i16
  br label %read_c2.exit64

read_c2.exit64:                                   ; preds = %64, %72
  %.sink.i61 = phi i32 [ 2, %64 ], [ 1, %72 ]
  %.0.ph.i63 = phi i16 [ %71, %64 ], [ %73, %72 ]
  %74 = load i32, ptr @hf_oap_1_cmdcontrol_cache, align 4
  %75 = zext nneg i16 %.0.ph.i63 to i32
  %76 = tail call ptr (ptr, i32, ptr, i32, i32, i32, ptr, ...) @proto_tree_add_uint_format(ptr noundef %10, i32 noundef %74, ptr noundef %2, i32 noundef %.1, i32 noundef %.sink.i61, i32 noundef %75, ptr noundef nonnull @.str.772, i32 noundef %75)
  %77 = icmp samesign ult i16 %.0.ph.i63, 128
  %or.cond.i65 = and i1 %.not.i60, %77
  br i1 %or.cond.i65, label %78, label %validate_c2.exit66

78:                                               ; preds = %read_c2.exit64
  %79 = tail call ptr (ptr, ptr, ptr, ptr, ...) @expert_add_info_format(ptr noundef %0, ptr noundef %76, ptr noundef nonnull @ei_c2_c3_c4_format, ptr noundef nonnull @.str.737)
  br label %validate_c2.exit66

validate_c2.exit66:                               ; preds = %read_c2.exit64, %78
  %80 = add i32 %.sink.i61, %.1
  br label %81

81:                                               ; preds = %validate_c2.exit66, %.loopexit
  %.3 = phi i32 [ %80, %validate_c2.exit66 ], [ %.1, %.loopexit ]
  ret i32 %.3
}